target datalayout = "e-m:e-p270:32:32-p271:32:32-p272:64:64-i64:64-i128:128-f80:128-n8:16:32:64-S128"
target triple = "x86_64-pc-linux-gnu"

@.str.87 = private unnamed_addr constant [179 x i8] c"Odd rotation angle.\0AIf you want to help, upload a sample of this file to https://streams.videolan.org/upload/ and contact the ffmpeg-devel mailing list. (ffmpeg-devel@ffmpeg.org)\00", align 1

; Function Attrs: nounwind uwtable
define double @get_rotation(ptr noundef %0) #0 {
  %2 = alloca ptr, align 8
  %3 = alloca double, align 8
  store ptr %0, ptr %2, align 8, !tbaa !60
  call void @llvm.lifetime.start.p0(i64 8, ptr %3) #11
  store double 0.000000e+00, ptr %3, align 8, !tbaa !16
  %4 = load ptr, ptr %2, align 8, !tbaa !60
  %5 = icmp ne ptr %4, null
  br i1 %5, label %6, label %11

6:                                                ; preds = %1
  %7 = load ptr, ptr %2, align 8, !tbaa !60
  %8 = call nsz double @av_display_rotation_get(ptr noundef %7)
  %9 = call nsz double @llvm.round.f64(double %8)
  %10 = fneg nsz double %9
  store double %10, ptr %3, align 8, !tbaa !16
  br label %11

11:                                               ; preds = %6, %1
  %12 = load double, ptr %3, align 8, !tbaa !16
  %13 = fdiv nsz double %12, 3.600000e+02
  %14 = fadd nsz double %13, 2.500000e-03
  %15 = call nsz double @llvm.floor.f64(double %14)
  %16 = load double, ptr %3, align 8, !tbaa !16
  %17 = call nsz double @llvm.fmuladd.f64(double -3.600000e+02, double %15, double %16)
  store double %17, ptr %3, align 8, !tbaa !16
  %18 = load double, ptr %3, align 8, !tbaa !16
  %19 = load double, ptr %3, align 8, !tbaa !16
  %20 = fdiv nsz double %19, 9.000000e+01
  %21 = call nsz double @llvm.round.f64(double %20)
  %22 = call nsz double @llvm.fmuladd.f64(double -9.000000e+01, double %21, double %18)
  %23 = call nsz double @llvm.fabs.f64(double %22)
  %24 = fcmp nsz ogt double %23, 2.000000e+00
  br i1 %24, label %25, label %26

25:                                               ; preds = %11
  call void (ptr, i32, ptr, ...) @av_log(ptr noundef null, i32 noundef 24, ptr noundef @.str.87)
  br label %26

26:                                               ; preds = %25, %11
  %27 = load double, ptr %3, align 8, !tbaa !16
  call void @llvm.lifetime.end.p0(i64 8, ptr %3) #11
  ret double %27
}