; Function Attrs: nounwind uwtable
define double @get_rotation(ptr noundef %0) local_unnamed_addr #0 {
  %.not = icmp eq ptr %0, null
  br i1 %.not, label %6, label %2

2:                                                ; preds = %1
  %3 = tail call nsz double @av_display_rotation_get(ptr noundef nonnull %0) #15
  %4 = tail call nsz double @llvm.round.f64(double %3)
  %5 = fneg nsz double %4
  br label %6

6:                                                ; preds = %2, %1
  %.0 = phi nsz double [ %5, %2 ], [ 0.000000e+00, %1 ]
  %7 = fdiv nsz double %.0, 3.600000e+02
  %8 = fadd nsz double %7, 2.500000e-03
  %9 = tail call nsz double @llvm.floor.f64(double %8)
  %10 = tail call nsz double @llvm.fmuladd.f64(double %9, double -3.600000e+02, double %.0)
  %11 = fdiv nsz double %10, 9.000000e+01
  %12 = tail call nsz double @llvm.round.f64(double %11)
  %13 = tail call nsz double @llvm.fmuladd.f64(double %12, double -9.000000e+01, double %10)
  %14 = tail call nsz double @llvm.fabs.f64(double %13)
  %15 = fcmp nsz ogt double %14, 2.000000e+00
  br i1 %15, label %16, label %17

16:                                               ; preds = %6
  tail call void (ptr, i32, ptr, ...) @av_log(ptr noundef null, i32 noundef 24, ptr noundef nonnull @.str.87) #15
  br label %17

17:                                               ; preds = %16, %6
  ret double %10
}